target datalayout = "e-m:e-p270:32:32-p271:32:32-p272:64:64-i64:64-i128:128-f80:128-n8:16:32:64-S128"
target triple = "x86_64-pc-linux-gnu"

%struct.zsetopval = type { i32, [32 x i8], ptr, ptr, i32, i64, double }

; Function Attrs: nounwind uwtable
define dso_local void @zuiDiscardDirtyValue(ptr noundef %0) #0 {
  %2 = alloca ptr, align 8
  store ptr %0, ptr %2, align 8, !tbaa !45
  %3 = load ptr, ptr %2, align 8, !tbaa !45
  %4 = getelementptr inbounds nuw %struct.zsetopval, ptr %3, i32 0, i32 0
  %5 = load i32, ptr %4, align 8, !tbaa !179
  %6 = and i32 %5, 1
  %7 = icmp ne i32 %6, 0
  br i1 %7, label %8, label %18

8:                                                ; preds = %1
  %9 = load ptr, ptr %2, align 8, !tbaa !45
  %10 = getelementptr inbounds nuw %struct.zsetopval, ptr %9, i32 0, i32 2
  %11 = load ptr, ptr %10, align 8, !tbaa !181
  call void @sdsfree(ptr noundef %11)
  %12 = load ptr, ptr %2, align 8, !tbaa !45
  %13 = getelementptr inbounds nuw %struct.zsetopval, ptr %12, i32 0, i32 2
  store ptr null, ptr %13, align 8, !tbaa !181
  %14 = load ptr, ptr %2, align 8, !tbaa !45
  %15 = getelementptr inbounds nuw %struct.zsetopval, ptr %14, i32 0, i32 0
  %16 = load i32, ptr %15, align 8, !tbaa !179
  %17 = and i32 %16, -2
  store i32 %17, ptr %15, align 8, !tbaa !179
  br label %18

18:                                               ; preds = %8, %1
  ret void
}