; Function Attrs: nounwind uwtable
define dso_local void @zuiDiscardDirtyValue(ptr noundef captures(none) %0) local_unnamed_addr #0 {
  %2 = load i32, ptr %0, align 8, !tbaa !161
  %3 = and i32 %2, 1
  %.not = icmp eq i32 %3, 0
  br i1 %.not, label %9, label %4

4:                                                ; preds = %1
  %5 = getelementptr inbounds nuw i8, ptr %0, i64 40
  %6 = load ptr, ptr %5, align 8, !tbaa !163
  tail call void @sdsfree(ptr noundef %6) #18
  store ptr null, ptr %5, align 8, !tbaa !163
  %7 = load i32, ptr %0, align 8, !tbaa !161
  %8 = and i32 %7, -2
  store i32 %8, ptr %0, align 8, !tbaa !161
  br label %9

9:                                                ; preds = %4, %1
  ret void
}